; Function Attrs: null_pointer_is_valid sspstrong uwtable
define internal void @dtap_mm_tmsi_realloc_cmd(ptr noundef %0, ptr noundef %1, ptr noundef %2, i32 noundef %3, i32 noundef %4) #1 {
  store i1 false, ptr @is_uplink, align 4
  %6 = icmp sgt i32 %4, 0
  br i1 %6, label %7, label %13

7:                                                ; preds = %5
  %8 = tail call zeroext i16 @elem_v(ptr noundef %0, ptr noundef %1, ptr noundef %2, i32 noundef 4, i32 noundef 2, i32 noundef %3, ptr noundef null)
  %.not = icmp eq i16 %8, 0
  br i1 %.not, label %13, label %9

9:                                                ; preds = %7
  %10 = zext i16 %8 to i32
  %11 = add i32 %3, %10
  %12 = sub nsw i32 %4, %10
  br label %16

13:                                               ; preds = %7, %5
  %14 = tail call ptr @get_gsm_a_msg_string(i32 noundef 4, i32 noundef 2)
  %15 = tail call ptr (ptr, ptr, ptr, ptr, i32, i32, ptr, ...) @proto_tree_add_expert_format(ptr noundef %1, ptr noundef %2, ptr noundef nonnull @ei_gsm_a_dtap_missing_mandatory_element, ptr noundef %0, i32 noundef %3, i32 noundef 0, ptr noundef nonnull @.str.1325, ptr noundef %14, ptr noundef nonnull @.str.824)
  br label %16

16:                                               ; preds = %13, %9
  %.036 = phi i32 [ %11, %9 ], [ %3, %13 ]
  %.0 = phi i32 [ %12, %9 ], [ %4, %13 ]
  %17 = icmp sgt i32 %.0, 0
  br i1 %17, label %18, label %24

18:                                               ; preds = %16
  %19 = tail call zeroext i16 @elem_lv(ptr noundef %0, ptr noundef %1, ptr noundef %2, i32 noundef 4, i32 noundef 3, i32 noundef %.036, i32 noundef %.0, ptr noundef null)
  %.not41 = icmp eq i16 %19, 0
  br i1 %.not41, label %24, label %20

20:                                               ; preds = %18
  %21 = zext i16 %19 to i32
  %22 = add i32 %.036, %21
  %23 = sub nsw i32 %.0, %21
  br label %27

24:                                               ; preds = %18, %16
  %25 = tail call ptr @get_gsm_a_msg_string(i32 noundef 4, i32 noundef 3)
  %26 = tail call ptr (ptr, ptr, ptr, ptr, i32, i32, ptr, ...) @proto_tree_add_expert_format(ptr noundef %1, ptr noundef %2, ptr noundef nonnull @ei_gsm_a_dtap_missing_mandatory_element, ptr noundef %0, i32 noundef %.036, i32 noundef 0, ptr noundef nonnull @.str.1325, ptr noundef %25, ptr noundef nonnull @.str.824)
  br label %27

27:                                               ; preds = %24, %20
  %.137 = phi i32 [ %22, %20 ], [ %.036, %24 ]
  %.1 = phi i32 [ %23, %20 ], [ %.0, %24 ]
  %.not42 = icmp eq i32 %.1, 0
  br i1 %.not42, label %30, label %28

28:                                               ; preds = %27
  %29 = tail call ptr @proto_tree_add_expert(ptr noundef %1, ptr noundef %2, ptr noundef nonnull @ei_gsm_a_dtap_extraneous_data, ptr noundef %0, i32 noundef %.137, i32 noundef %.1)
  br label %30

30:                                               ; preds = %28, %27
  ret void
}